; Function Attrs: nounwind uwtable
define ptr @wc_NewRsaKey(ptr noundef %0, i32 noundef %1, ptr noundef writeonly captures(address_is_null) %2) local_unnamed_addr #0 {
  %4 = tail call ptr @wolfSSL_Malloc(i64 noundef 8368) #12
  %5 = icmp eq ptr %4, null
  br i1 %5, label %wc_InitRsaKey_ex.exit, label %6

6:                                                ; preds = %3
  tail call void @llvm.memset.p0.i64(ptr noundef nonnull align 8 dereferenceable(8368) %4, i8 0, i64 8368, i1 false)
  %7 = getelementptr inbounds nuw i8, ptr %4, i64 8336
  store i32 -1, ptr %7, align 8, !tbaa !3
  %8 = getelementptr inbounds nuw i8, ptr %4, i64 8320
  store ptr %0, ptr %8, align 8, !tbaa !13
  %9 = getelementptr inbounds nuw i8, ptr %4, i64 8352
  store ptr null, ptr %9, align 8, !tbaa !14
  %10 = getelementptr inbounds nuw i8, ptr %4, i64 1040
  %11 = tail call i32 @sp_init_multi(ptr noundef nonnull %4, ptr noundef nonnull %10, ptr noundef null, ptr noundef null, ptr noundef null, ptr noundef null) #12
  %.not.i = icmp eq i32 %11, 0
  br i1 %.not.i, label %12, label %21

12:                                               ; preds = %6
  %13 = getelementptr inbounds nuw i8, ptr %4, i64 2080
  %14 = getelementptr inbounds nuw i8, ptr %4, i64 3120
  %15 = getelementptr inbounds nuw i8, ptr %4, i64 4160
  %16 = getelementptr inbounds nuw i8, ptr %4, i64 5200
  %17 = getelementptr inbounds nuw i8, ptr %4, i64 6240
  %18 = getelementptr inbounds nuw i8, ptr %4, i64 7280
  %19 = tail call i32 @sp_init_multi(ptr noundef nonnull %13, ptr noundef nonnull %14, ptr noundef nonnull %15, ptr noundef nonnull %16, ptr noundef nonnull %17, ptr noundef nonnull %18) #12
  %.not28.i = icmp eq i32 %19, 0
  br i1 %.not28.i, label %wc_InitRsaKey_ex.exit, label %20

20:                                               ; preds = %12
  tail call void @sp_clear(ptr noundef nonnull %4) #12
  tail call void @sp_clear(ptr noundef nonnull %10) #12
  br label %21

21:                                               ; preds = %20, %6
  %.0.i.ph = phi i32 [ %11, %6 ], [ %19, %20 ]
  tail call void @wolfSSL_Free(ptr noundef nonnull %4) #12
  br label %wc_InitRsaKey_ex.exit

wc_InitRsaKey_ex.exit:                            ; preds = %12, %3, %21
  %.011 = phi ptr [ null, %21 ], [ null, %3 ], [ %4, %12 ]
  %.0 = phi i32 [ %.0.i.ph, %21 ], [ -125, %3 ], [ 0, %12 ]
  %.not16 = icmp eq ptr %2, null
  br i1 %.not16, label %23, label %22

22:                                               ; preds = %wc_InitRsaKey_ex.exit
  store i32 %.0, ptr %2, align 4, !tbaa !15
  br label %23

23:                                               ; preds = %22, %wc_InitRsaKey_ex.exit
  ret ptr %.011
}